; Function Attrs: nounwind sspstrong uwtable
define internal void @marshal_compat_table_compact(ptr noundef %0) #0 {
  %.not = icmp eq ptr %0, null
  br i1 %.not, label %4, label %2

2:                                                ; preds = %1
  %3 = tail call i32 @rb_st_foreach(ptr noundef nonnull %0, ptr noundef nonnull @marshal_compat_table_compact_i, i64 noundef 0) #22
  br label %4

4:                                                ; preds = %1, %2
  ret void
}